target datalayout = "e-m:e-p270:32:32-p271:32:32-p272:64:64-i64:64-i128:128-f80:128-n8:16:32:64-S128"
target triple = "x86_64-pc-linux-gnu"

%struct.MetasoundProps = type { i32, i32, i32, i32 }
%struct.AVCodecContext = type { ptr, i32, i32, ptr, i32, i32, ptr, ptr, ptr, i64, i32, i32, ptr, i32, %struct.AVRational, %struct.AVRational, %struct.AVRational, i32, i32, i32, i32, i32, %struct.AVRational, i32, i32, i32, i32, i32, i32, i32, i32, i32, i32, i32, ptr, ptr, i32, float, float, float, float, float, float, float, float, float, i32, i32, i32, i32, i32, i32, i32, i32, i32, i32, i32, i32, ptr, ptr, ptr, i32, i32, i32, i32, i32, i32, i32, i32, i32, i32, %struct.AVChannelLayout, i32, i32, i32, i32, i32, i32, i32, i32, ptr, i32, i32, i32, float, float, i32, i32, i32, i32, i32, ptr, i64, i64, float, float, i32, i32, ptr, ptr, i32, i32, i32, i32, i32, ptr, ptr, ptr, ptr, i32, i32, [8 x i64], i32, i32, i32, i32, i32, i32, i32, ptr, ptr, i32, i32, i32, i32, i32, i32, i32, i32, i32, i32, ptr, ptr, i32, i32, ptr, ptr, ptr, ptr, i32, i32, i64, i32, i32, i64, ptr, i64, ptr, i32, ptr, i32 }
%struct.AVRational = type { i32, i32 }
%struct.AVChannelLayout = type { i32, i32, %union.anon.0, ptr }
%union.anon.0 = type { i64 }
%struct.TwinVQContext = type { ptr, ptr, [3 x ptr], [3 x ptr], ptr, i32, [2 x [20 x float]], [3 x [2 x [40 x float]]], [4 x [4096 x i16]], [4 x [2 x i8]], [4 x i8], [2 x [4 x [2 x i8]]], [4 x i32], [4 x i32], ptr, ptr, ptr, [2 x i32], i32, [3 x ptr], ptr, i32, i32, i32, [2 x %struct.TwinVQFrameData], i32, ptr, ptr, ptr }
%struct.TwinVQFrameData = type { i32, i32, [1024 x i8], [60 x i8], [2 x i8], [32 x i8], [2 x [16 x [4 x i8]]], [2 x [16 x i8]], [2 x i8], [2 x [4 x i8]], [2 x i8], [2 x i32], [2 x i32] }
%struct.TwinVQModeTab = type { [3 x %struct.TwinVQFrameMode], i16, i8, ptr, i8, i8, i8, i8, ptr, i8, i8, i8, i8, i16 }
%struct.TwinVQFrameMode = type { i8, ptr, i8, ptr, i8, i8, ptr, ptr, i8 }

@.str.2 = private unnamed_addr constant [33 x i8] c"Missing or incomplete extradata\0A\00", align 1
@.str.3 = private unnamed_addr constant [25 x i8] c"Could not find tag %08X\0A\00", align 1
@.str.4 = private unnamed_addr constant [59 x i8] c"This version does not support %d kHz - %d kbit/s/ch mode.\0A\00", align 1

; Function Attrs: cold nounwind optsize uwtable
define internal i32 @metasound_decode_init(ptr noundef %0) #0 {
  %2 = alloca i32, align 4
  %3 = alloca ptr, align 8
  %4 = alloca i32, align 4
  %5 = alloca i32, align 4
  %6 = alloca ptr, align 8
  %7 = alloca i32, align 4
  %8 = alloca ptr, align 8
  %9 = alloca i32, align 4
  %10 = alloca i32, align 4
  store ptr %0, ptr %3, align 8, !tbaa !4
  call void @llvm.lifetime.start.p0(i64 4, ptr %4) #8
  call void @llvm.lifetime.start.p0(i64 4, ptr %5) #8
  call void @llvm.lifetime.start.p0(i64 8, ptr %6) #8
  %11 = load ptr, ptr %3, align 8, !tbaa !4
  %12 = getelementptr inbounds nuw %struct.AVCodecContext, ptr %11, i32 0, i32 6
  %13 = load ptr, ptr %12, align 8, !tbaa !9
  store ptr %13, ptr %6, align 8, !tbaa !29
  call void @llvm.lifetime.start.p0(i64 4, ptr %7) #8
  call void @llvm.lifetime.start.p0(i64 8, ptr %8) #8
  store ptr @codec_props, ptr %8, align 8, !tbaa !31
  call void @llvm.lifetime.start.p0(i64 4, ptr %9) #8
  %14 = load ptr, ptr %3, align 8, !tbaa !4
  %15 = getelementptr inbounds nuw %struct.AVCodecContext, ptr %14, i32 0, i32 12
  %16 = load ptr, ptr %15, align 8, !tbaa !33
  %17 = icmp ne ptr %16, null
  br i1 %17, label %18, label %23

18:                                               ; preds = %1
  %19 = load ptr, ptr %3, align 8, !tbaa !4
  %20 = getelementptr inbounds nuw %struct.AVCodecContext, ptr %19, i32 0, i32 13
  %21 = load i32, ptr %20, align 8, !tbaa !34
  %22 = icmp slt i32 %21, 16
  br i1 %22, label %23, label %25

23:                                               ; preds = %18, %1
  %24 = load ptr, ptr %3, align 8, !tbaa !4
  call void (ptr, i32, ptr, ...) @av_log(ptr noundef %24, i32 noundef 16, ptr noundef @.str.2)
  store i32 -1094995529, ptr %2, align 4
  store i32 1, ptr %10, align 4
  br label %166

25:                                               ; preds = %18
  %26 = load ptr, ptr %3, align 8, !tbaa !4
  %27 = getelementptr inbounds nuw %struct.AVCodecContext, ptr %26, i32 0, i32 12
  %28 = load ptr, ptr %27, align 8, !tbaa !33
  %29 = getelementptr inbounds i8, ptr %28, i64 12
  %30 = load i32, ptr %29, align 1, !tbaa !35
  store i32 %30, ptr %7, align 4, !tbaa !36
  br label %31

31:                                               ; preds = %65, %25
  %32 = load ptr, ptr %8, align 8, !tbaa !31
  %33 = getelementptr inbounds nuw %struct.MetasoundProps, ptr %32, i32 0, i32 0
  %34 = load i32, ptr %33, align 4, !tbaa !37
  %35 = icmp ne i32 %34, 0
  br i1 %35, label %39, label %36

36:                                               ; preds = %31
  %37 = load ptr, ptr %3, align 8, !tbaa !4
  %38 = load i32, ptr %7, align 4, !tbaa !36
  call void (ptr, i32, ptr, ...) @av_log(ptr noundef %37, i32 noundef 16, ptr noundef @.str.3, i32 noundef %38)
  store i32 -1094995529, ptr %2, align 4
  store i32 1, ptr %10, align 4
  br label %166

39:                                               ; preds = %31
  %40 = load ptr, ptr %8, align 8, !tbaa !31
  %41 = getelementptr inbounds nuw %struct.MetasoundProps, ptr %40, i32 0, i32 0
  %42 = load i32, ptr %41, align 4, !tbaa !37
  %43 = load i32, ptr %7, align 4, !tbaa !36
  %44 = icmp eq i32 %42, %43
  br i1 %44, label %45, label %65

45:                                               ; preds = %39
  %46 = load ptr, ptr %8, align 8, !tbaa !31
  %47 = getelementptr inbounds nuw %struct.MetasoundProps, ptr %46, i32 0, i32 3
  %48 = load i32, ptr %47, align 4, !tbaa !39
  %49 = load ptr, ptr %3, align 8, !tbaa !4
  %50 = getelementptr inbounds nuw %struct.AVCodecContext, ptr %49, i32 0, i32 69
  store i32 %48, ptr %50, align 8, !tbaa !40
  %51 = load ptr, ptr %8, align 8, !tbaa !31
  %52 = getelementptr inbounds nuw %struct.MetasoundProps, ptr %51, i32 0, i32 2
  %53 = load i32, ptr %52, align 4, !tbaa !41
  store i32 %53, ptr %9, align 4, !tbaa !36
  %54 = load ptr, ptr %8, align 8, !tbaa !31
  %55 = getelementptr inbounds nuw %struct.MetasoundProps, ptr %54, i32 0, i32 1
  %56 = load i32, ptr %55, align 4, !tbaa !42
  %57 = mul nsw i32 %56, 1000
  %58 = sext i32 %57 to i64
  %59 = load ptr, ptr %3, align 8, !tbaa !4
  %60 = getelementptr inbounds nuw %struct.AVCodecContext, ptr %59, i32 0, i32 9
  store i64 %58, ptr %60, align 8, !tbaa !43
  %61 = load ptr, ptr %3, align 8, !tbaa !4
  %62 = getelementptr inbounds nuw %struct.AVCodecContext, ptr %61, i32 0, i32 69
  %63 = load i32, ptr %62, align 8, !tbaa !40
  %64 = sdiv i32 %63, 1000
  store i32 %64, ptr %4, align 4, !tbaa !36
  br label %68

65:                                               ; preds = %39
  %66 = load ptr, ptr %8, align 8, !tbaa !31
  %67 = getelementptr inbounds nuw %struct.MetasoundProps, ptr %66, i32 1
  store ptr %67, ptr %8, align 8, !tbaa !31
  br label %31

68:                                               ; preds = %45
  %69 = load ptr, ptr %3, align 8, !tbaa !4
  %70 = getelementptr inbounds nuw %struct.AVCodecContext, ptr %69, i32 0, i32 71
  call void @av_channel_layout_uninit(ptr noundef %70)
  %71 = load ptr, ptr %3, align 8, !tbaa !4
  %72 = getelementptr inbounds nuw %struct.AVCodecContext, ptr %71, i32 0, i32 71
  %73 = load i32, ptr %9, align 4, !tbaa !36
  call void @av_channel_layout_default(ptr noundef %72, i32 noundef %73)
  %74 = load ptr, ptr %3, align 8, !tbaa !4
  %75 = getelementptr inbounds nuw %struct.AVCodecContext, ptr %74, i32 0, i32 9
  %76 = load i64, ptr %75, align 8, !tbaa !43
  %77 = load i32, ptr %9, align 4, !tbaa !36
  %78 = mul nsw i32 1000, %77
  %79 = sext i32 %78 to i64
  %80 = sdiv i64 %76, %79
  %81 = trunc i64 %80 to i32
  store i32 %81, ptr %5, align 4, !tbaa !36
  %82 = load i32, ptr %9, align 4, !tbaa !36
  %83 = shl i32 %82, 16
  %84 = load i32, ptr %4, align 4, !tbaa !36
  %85 = shl i32 %84, 8
  %86 = add nsw i32 %83, %85
  %87 = load i32, ptr %5, align 4, !tbaa !36
  %88 = add nsw i32 %86, %87
  switch i32 %88, label %128 [
    i32 67590, label %89
    i32 133126, label %92
    i32 67592, label %95
    i32 133128, label %98
    i32 68362, label %101
    i32 133898, label %104
    i32 69648, label %107
    i32 135184, label %110
    i32 71192, label %113
    i32 136728, label %116
    i32 76832, label %119
    i32 142368, label %119
    i32 76840, label %122
    i32 142376, label %122
    i32 76848, label %125
    i32 142384, label %125
  ]

89:                                               ; preds = %68
  %90 = load ptr, ptr %6, align 8, !tbaa !29
  %91 = getelementptr inbounds nuw %struct.TwinVQContext, ptr %90, i32 0, i32 4
  store ptr @metasound_mode0806, ptr %91, align 8, !tbaa !44
  br label %132

92:                                               ; preds = %68
  %93 = load ptr, ptr %6, align 8, !tbaa !29
  %94 = getelementptr inbounds nuw %struct.TwinVQContext, ptr %93, i32 0, i32 4
  store ptr @metasound_mode0806s, ptr %94, align 8, !tbaa !44
  br label %132

95:                                               ; preds = %68
  %96 = load ptr, ptr %6, align 8, !tbaa !29
  %97 = getelementptr inbounds nuw %struct.TwinVQContext, ptr %96, i32 0, i32 4
  store ptr @metasound_mode0808, ptr %97, align 8, !tbaa !44
  br label %132

98:                                               ; preds = %68
  %99 = load ptr, ptr %6, align 8, !tbaa !29
  %100 = getelementptr inbounds nuw %struct.TwinVQContext, ptr %99, i32 0, i32 4
  store ptr @metasound_mode0808s, ptr %100, align 8, !tbaa !44
  br label %132

101:                                              ; preds = %68
  %102 = load ptr, ptr %6, align 8, !tbaa !29
  %103 = getelementptr inbounds nuw %struct.TwinVQContext, ptr %102, i32 0, i32 4
  store ptr @metasound_mode1110, ptr %103, align 8, !tbaa !44
  br label %132

104:                                              ; preds = %68
  %105 = load ptr, ptr %6, align 8, !tbaa !29
  %106 = getelementptr inbounds nuw %struct.TwinVQContext, ptr %105, i32 0, i32 4
  store ptr @metasound_mode1110s, ptr %106, align 8, !tbaa !44
  br label %132

107:                                              ; preds = %68
  %108 = load ptr, ptr %6, align 8, !tbaa !29
  %109 = getelementptr inbounds nuw %struct.TwinVQContext, ptr %108, i32 0, i32 4
  store ptr @metasound_mode1616, ptr %109, align 8, !tbaa !44
  br label %132

110:                                              ; preds = %68
  %111 = load ptr, ptr %6, align 8, !tbaa !29
  %112 = getelementptr inbounds nuw %struct.TwinVQContext, ptr %111, i32 0, i32 4
  store ptr @metasound_mode1616s, ptr %112, align 8, !tbaa !44
  br label %132

113:                                              ; preds = %68
  %114 = load ptr, ptr %6, align 8, !tbaa !29
  %115 = getelementptr inbounds nuw %struct.TwinVQContext, ptr %114, i32 0, i32 4
  store ptr @metasound_mode2224, ptr %115, align 8, !tbaa !44
  br label %132

116:                                              ; preds = %68
  %117 = load ptr, ptr %6, align 8, !tbaa !29
  %118 = getelementptr inbounds nuw %struct.TwinVQContext, ptr %117, i32 0, i32 4
  store ptr @metasound_mode2224s, ptr %118, align 8, !tbaa !44
  br label %132

119:                                              ; preds = %68, %68
  %120 = load ptr, ptr %6, align 8, !tbaa !29
  %121 = getelementptr inbounds nuw %struct.TwinVQContext, ptr %120, i32 0, i32 4
  store ptr @metasound_mode4432, ptr %121, align 8, !tbaa !44
  br label %132

122:                                              ; preds = %68, %68
  %123 = load ptr, ptr %6, align 8, !tbaa !29
  %124 = getelementptr inbounds nuw %struct.TwinVQContext, ptr %123, i32 0, i32 4
  store ptr @metasound_mode4440, ptr %124, align 8, !tbaa !44
  br label %132

125:                                              ; preds = %68, %68
  %126 = load ptr, ptr %6, align 8, !tbaa !29
  %127 = getelementptr inbounds nuw %struct.TwinVQContext, ptr %126, i32 0, i32 4
  store ptr @metasound_mode4448, ptr %127, align 8, !tbaa !44
  br label %132

128:                                              ; preds = %68
  %129 = load ptr, ptr %3, align 8, !tbaa !4
  %130 = load i32, ptr %4, align 4, !tbaa !36
  %131 = load i32, ptr %5, align 4, !tbaa !36
  call void (ptr, i32, ptr, ...) @av_log(ptr noundef %129, i32 noundef 16, ptr noundef @.str.4, i32 noundef %130, i32 noundef %131)
  store i32 -38, ptr %2, align 4
  store i32 1, ptr %10, align 4
  br label %166

132:                                              ; preds = %125, %122, %119, %116, %113, %110, %107, %104, %101, %98, %95, %92, %89
  %133 = load ptr, ptr %6, align 8, !tbaa !29
  %134 = getelementptr inbounds nuw %struct.TwinVQContext, ptr %133, i32 0, i32 25
  store i32 1, ptr %134, align 4, !tbaa !49
  %135 = load ptr, ptr %6, align 8, !tbaa !29
  %136 = getelementptr inbounds nuw %struct.TwinVQContext, ptr %135, i32 0, i32 26
  store ptr @metasound_read_bitstream, ptr %136, align 8, !tbaa !50
  %137 = load ptr, ptr %6, align 8, !tbaa !29
  %138 = getelementptr inbounds nuw %struct.TwinVQContext, ptr %137, i32 0, i32 27
  store ptr @dec_bark_env, ptr %138, align 8, !tbaa !51
  %139 = load ptr, ptr %6, align 8, !tbaa !29
  %140 = getelementptr inbounds nuw %struct.TwinVQContext, ptr %139, i32 0, i32 28
  store ptr @decode_ppc, ptr %140, align 8, !tbaa !52
  %141 = load ptr, ptr %3, align 8, !tbaa !4
  %142 = getelementptr inbounds nuw %struct.AVCodecContext, ptr %141, i32 0, i32 9
  %143 = load i64, ptr %142, align 8, !tbaa !43
  %144 = load ptr, ptr %6, align 8, !tbaa !29
  %145 = getelementptr inbounds nuw %struct.TwinVQContext, ptr %144, i32 0, i32 4
  %146 = load ptr, ptr %145, align 8, !tbaa !44
  %147 = getelementptr inbounds nuw %struct.TwinVQModeTab, ptr %146, i32 0, i32 1
  %148 = load i16, ptr %147, align 8, !tbaa !53
  %149 = zext i16 %148 to i64
  %150 = mul nsw i64 %143, %149
  %151 = load ptr, ptr %3, align 8, !tbaa !4
  %152 = getelementptr inbounds nuw %struct.AVCodecContext, ptr %151, i32 0, i32 69
  %153 = load i32, ptr %152, align 8, !tbaa !40
  %154 = sext i32 %153 to i64
  %155 = sdiv i64 %150, %154
  %156 = trunc i64 %155 to i32
  %157 = load ptr, ptr %6, align 8, !tbaa !29
  %158 = getelementptr inbounds nuw %struct.TwinVQContext, ptr %157, i32 0, i32 21
  store i32 %156, ptr %158, align 8, !tbaa !56
  %159 = load i32, ptr %5, align 4, !tbaa !36
  %160 = icmp eq i32 %159, 6
  %161 = zext i1 %160 to i32
  %162 = load ptr, ptr %6, align 8, !tbaa !29
  %163 = getelementptr inbounds nuw %struct.TwinVQContext, ptr %162, i32 0, i32 5
  store i32 %161, ptr %163, align 8, !tbaa !57
  %164 = load ptr, ptr %3, align 8, !tbaa !4
  %165 = call i32 @ff_twinvq_decode_init(ptr noundef %164)
  store i32 %165, ptr %2, align 4
  store i32 1, ptr %10, align 4
  br label %166

166:                                              ; preds = %132, %128, %36, %23
  call void @llvm.lifetime.end.p0(i64 4, ptr %9) #8
  call void @llvm.lifetime.end.p0(i64 8, ptr %8) #8
  call void @llvm.lifetime.end.p0(i64 4, ptr %7) #8
  call void @llvm.lifetime.end.p0(i64 8, ptr %6) #8
  call void @llvm.lifetime.end.p0(i64 4, ptr %5) #8
  call void @llvm.lifetime.end.p0(i64 4, ptr %4) #8
  %167 = load i32, ptr %2, align 4
  ret i32 %167
}