; Function Attrs: cold nounwind optsize uwtable
define internal i32 @metasound_decode_init(ptr noundef %0) #0 {
  %2 = getelementptr inbounds nuw i8, ptr %0, i64 32
  %3 = load ptr, ptr %2, align 8, !tbaa !4
  %4 = getelementptr inbounds nuw i8, ptr %0, i64 72
  %5 = load ptr, ptr %4, align 8, !tbaa !27
  %.not = icmp eq ptr %5, null
  br i1 %.not, label %10, label %6

6:                                                ; preds = %1
  %7 = getelementptr inbounds nuw i8, ptr %0, i64 80
  %8 = load i32, ptr %7, align 8, !tbaa !28
  %9 = icmp slt i32 %8, 16
  br i1 %9, label %10, label %11

10:                                               ; preds = %6, %1
  tail call void (ptr, i32, ptr, ...) @av_log(ptr noundef nonnull %0, i32 noundef 16, ptr noundef nonnull @.str.2) #6
  br label %75

11:                                               ; preds = %6
  %12 = getelementptr inbounds nuw i8, ptr %5, i64 12
  %13 = load i32, ptr %12, align 1, !tbaa !29
  br label %15

14:                                               ; preds = %40
  tail call void (ptr, i32, ptr, ...) @av_log(ptr noundef %0, i32 noundef 16, ptr noundef nonnull @.str.3, i32 noundef %13) #6
  br label %75

15:                                               ; preds = %11, %40
  %16 = phi i32 [ 858806358, %11 ], [ %42, %40 ]
  %.05257 = phi ptr [ @codec_props, %11 ], [ %41, %40 ]
  %17 = icmp eq i32 %16, %13
  br i1 %17, label %18, label %40

18:                                               ; preds = %15
  %19 = getelementptr inbounds nuw i8, ptr %.05257, i64 12
  %20 = load i32, ptr %19, align 4, !tbaa !30
  %21 = getelementptr inbounds nuw i8, ptr %0, i64 344
  store i32 %20, ptr %21, align 8, !tbaa !32
  %22 = getelementptr inbounds nuw i8, ptr %.05257, i64 8
  %23 = load i32, ptr %22, align 4, !tbaa !33
  %24 = getelementptr inbounds nuw i8, ptr %.05257, i64 4
  %25 = load i32, ptr %24, align 4, !tbaa !34
  %26 = mul nsw i32 %25, 1000
  %27 = sext i32 %26 to i64
  %28 = getelementptr inbounds nuw i8, ptr %0, i64 56
  store i64 %27, ptr %28, align 8, !tbaa !35
  %29 = sdiv i32 %20, 1000
  %30 = getelementptr inbounds nuw i8, ptr %0, i64 352
  tail call void @av_channel_layout_uninit(ptr noundef nonnull %30) #6
  tail call void @av_channel_layout_default(ptr noundef nonnull %30, i32 noundef %23) #6
  %31 = load i64, ptr %28, align 8, !tbaa !35
  %32 = mul nsw i32 %23, 1000
  %33 = sext i32 %32 to i64
  %34 = sdiv i64 %31, %33
  %35 = trunc i64 %34 to i32
  %36 = shl i32 %23, 16
  %37 = shl nsw i32 %29, 8
  %38 = add nsw i32 %36, %37
  %39 = add nsw i32 %38, %35
  switch i32 %39, label %55 [
    i32 67590, label %56
    i32 133126, label %43
    i32 67592, label %44
    i32 133128, label %45
    i32 68362, label %46
    i32 133898, label %47
    i32 69648, label %48
    i32 135184, label %49
    i32 71192, label %50
    i32 136728, label %51
    i32 76832, label %52
    i32 142368, label %52
    i32 76840, label %53
    i32 142376, label %53
    i32 76848, label %54
    i32 142384, label %54
  ]

40:                                               ; preds = %15
  %41 = getelementptr inbounds nuw i8, ptr %.05257, i64 16
  %42 = load i32, ptr %41, align 4, !tbaa !36
  %.not55 = icmp eq i32 %42, 0
  br i1 %.not55, label %14, label %15

43:                                               ; preds = %18
  br label %56

44:                                               ; preds = %18
  br label %56

45:                                               ; preds = %18
  br label %56

46:                                               ; preds = %18
  br label %56

47:                                               ; preds = %18
  br label %56

48:                                               ; preds = %18
  br label %56

49:                                               ; preds = %18
  br label %56

50:                                               ; preds = %18
  br label %56

51:                                               ; preds = %18
  br label %56

52:                                               ; preds = %18, %18
  br label %56

53:                                               ; preds = %18, %18
  br label %56

54:                                               ; preds = %18, %18
  br label %56

55:                                               ; preds = %18
  tail call void (ptr, i32, ptr, ...) @av_log(ptr noundef nonnull %0, i32 noundef 16, ptr noundef nonnull @.str.4, i32 noundef %29, i32 noundef %35) #6
  br label %75

56:                                               ; preds = %18, %54, %53, %52, %51, %50, %49, %48, %47, %46, %45, %44, %43
  %metasound_mode4448.sink = phi ptr [ @metasound_mode4448, %54 ], [ @metasound_mode4440, %53 ], [ @metasound_mode4432, %52 ], [ @metasound_mode2224s, %51 ], [ @metasound_mode2224, %50 ], [ @metasound_mode1616s, %49 ], [ @metasound_mode1616, %48 ], [ @metasound_mode1110s, %47 ], [ @metasound_mode1110, %46 ], [ @metasound_mode0808s, %45 ], [ @metasound_mode0808, %44 ], [ @metasound_mode0806s, %43 ], [ @metasound_mode0806, %18 ]
  %57 = getelementptr inbounds nuw i8, ptr %3, i64 64
  store ptr %metasound_mode4448.sink, ptr %57, align 8, !tbaa !37
  %58 = getelementptr inbounds nuw i8, ptr %3, i64 36740
  store i32 1, ptr %58, align 4, !tbaa !43
  %59 = getelementptr inbounds nuw i8, ptr %3, i64 36744
  store ptr @metasound_read_bitstream, ptr %59, align 8, !tbaa !44
  %60 = getelementptr inbounds nuw i8, ptr %3, i64 36752
  store ptr @dec_bark_env, ptr %60, align 8, !tbaa !45
  %61 = getelementptr inbounds nuw i8, ptr %3, i64 36760
  store ptr @decode_ppc, ptr %61, align 8, !tbaa !46
  %62 = getelementptr inbounds nuw i8, ptr %metasound_mode4448.sink, i64 192
  %63 = load i16, ptr %62, align 8, !tbaa !47
  %64 = zext i16 %63 to i64
  %65 = mul nsw i64 %31, %64
  %66 = load i32, ptr %21, align 8, !tbaa !32
  %67 = sext i32 %66 to i64
  %68 = sdiv i64 %65, %67
  %69 = trunc i64 %68 to i32
  %70 = getelementptr inbounds nuw i8, ptr %3, i64 34096
  store i32 %69, ptr %70, align 8, !tbaa !50
  %71 = icmp eq i32 %35, 6
  %72 = zext i1 %71 to i32
  %73 = getelementptr inbounds nuw i8, ptr %3, i64 72
  store i32 %72, ptr %73, align 8, !tbaa !51
  %74 = tail call i32 @ff_twinvq_decode_init(ptr noundef nonnull %0) #6
  br label %75

75:                                               ; preds = %56, %55, %14, %10
  %.0 = phi i32 [ -1094995529, %10 ], [ -38, %55 ], [ %74, %56 ], [ -1094995529, %14 ]
  ret i32 %.0
}